target datalayout = "e-m:e-p270:32:32-p271:32:32-p272:64:64-i64:64-i128:128-f80:128-n8:16:32:64-S128"
target triple = "x86_64-pc-linux-gnu"

%"class.cv::wechat_qrcode::BinarizerMgr" = type { i32, i32, %"class.std::vector" }
%"class.std::vector" = type { %"struct.std::_Vector_base" }
%"struct.std::_Vector_base" = type { %"struct.std::_Vector_base<cv::wechat_qrcode::BinarizerMgr::BINARIZER, std::allocator<cv::wechat_qrcode::BinarizerMgr::BINARIZER>>::_Vector_impl" }
%"struct.std::_Vector_base<cv::wechat_qrcode::BinarizerMgr::BINARIZER, std::allocator<cv::wechat_qrcode::BinarizerMgr::BINARIZER>>::_Vector_impl" = type { %"struct.std::_Vector_base<cv::wechat_qrcode::BinarizerMgr::BINARIZER, std::allocator<cv::wechat_qrcode::BinarizerMgr::BINARIZER>>::_Vector_impl_data" }
%"struct.std::_Vector_base<cv::wechat_qrcode::BinarizerMgr::BINARIZER, std::allocator<cv::wechat_qrcode::BinarizerMgr::BINARIZER>>::_Vector_impl_data" = type { ptr, ptr, ptr }

; Function Attrs: mustprogress nounwind uwtable
define linkonce_odr hidden noundef i64 @_ZNKSt6vectorIN2cv13wechat_qrcode12BinarizerMgr9BINARIZERESaIS3_EE4sizeEv(ptr noundef nonnull align 8 dereferenceable(24) %0) #1 comdat align 2 {
  %2 = alloca ptr, align 8
  store ptr %0, ptr %2, align 8, !tbaa !18
  %3 = load ptr, ptr %2, align 8
  %4 = getelementptr inbounds nuw %"struct.std::_Vector_base", ptr %3, i32 0, i32 0
  %5 = getelementptr inbounds nuw %"struct.std::_Vector_base<cv::wechat_qrcode::BinarizerMgr::BINARIZER, std::allocator<cv::wechat_qrcode::BinarizerMgr::BINARIZER>>::_Vector_impl_data", ptr %4, i32 0, i32 1
  %6 = load ptr, ptr %5, align 8, !tbaa !22
  %7 = getelementptr inbounds nuw %"struct.std::_Vector_base", ptr %3, i32 0, i32 0
  %8 = getelementptr inbounds nuw %"struct.std::_Vector_base<cv::wechat_qrcode::BinarizerMgr::BINARIZER, std::allocator<cv::wechat_qrcode::BinarizerMgr::BINARIZER>>::_Vector_impl_data", ptr %7, i32 0, i32 0
  %9 = load ptr, ptr %8, align 8, !tbaa !21
  %10 = ptrtoint ptr %6 to i64
  %11 = ptrtoint ptr %9 to i64
  %12 = sub i64 %10, %11
  %13 = sdiv exact i64 %12, 4
  ret i64 %13
}

; Function Attrs: mustprogress nounwind uwtable
define hidden void @_ZN2cv13wechat_qrcode12BinarizerMgr15SwitchBinarizerEv(ptr noundef nonnull align 8 dereferenceable(32) %0) #1 align 2 {
  %2 = alloca ptr, align 8
  store ptr %0, ptr %2, align 8, !tbaa !3
  %3 = load ptr, ptr %2, align 8
  %4 = getelementptr inbounds nuw %"class.cv::wechat_qrcode::BinarizerMgr", ptr %3, i32 0, i32 0
  %5 = load i32, ptr %4, align 8, !tbaa !8
  %6 = add nsw i32 %5, 1
  %7 = sext i32 %6 to i64
  %8 = getelementptr inbounds nuw %"class.cv::wechat_qrcode::BinarizerMgr", ptr %3, i32 0, i32 2
  %9 = call noundef i64 @_ZNKSt6vectorIN2cv13wechat_qrcode12BinarizerMgr9BINARIZERESaIS3_EE4sizeEv(ptr noundef nonnull align 8 dereferenceable(24) %8) #12
  %10 = urem i64 %7, %9
  %11 = trunc i64 %10 to i32
  %12 = getelementptr inbounds nuw %"class.cv::wechat_qrcode::BinarizerMgr", ptr %3, i32 0, i32 0
  store i32 %11, ptr %12, align 8, !tbaa !8
  ret void
}