; Function Attrs: mustprogress nofree norecurse nosync nounwind willreturn memory(argmem: readwrite) uwtable
define hidden void @_ZN2cv13wechat_qrcode12BinarizerMgr15SwitchBinarizerEv(ptr noundef nonnull align 8 captures(none) dereferenceable(32) %0) local_unnamed_addr #5 align 2 {
  %2 = load i32, ptr %0, align 8, !tbaa !3
  %3 = add nsw i32 %2, 1
  %4 = sext i32 %3 to i64
  %5 = getelementptr inbounds nuw i8, ptr %0, i64 8
  %6 = getelementptr inbounds nuw i8, ptr %0, i64 16
  %7 = load ptr, ptr %6, align 8, !tbaa !17
  %8 = load ptr, ptr %5, align 8, !tbaa !16
  %9 = ptrtoint ptr %7 to i64
  %10 = ptrtoint ptr %8 to i64
  %11 = sub i64 %9, %10
  %12 = ashr exact i64 %11, 2
  %13 = urem i64 %4, %12
  %14 = trunc i64 %13 to i32
  store i32 %14, ptr %0, align 8, !tbaa !3
  ret void
}